target datalayout = "e-m:e-p270:32:32-p271:32:32-p272:64:64-i64:64-i128:128-f80:128-n8:16:32:64-S128"
target triple = "x86_64-pc-linux-gnu"

%"class.std::__cxx11::basic_string" = type { %"struct.std::__cxx11::basic_string<char>::_Alloc_hider", i64, %union.anon }
%"struct.std::__cxx11::basic_string<char>::_Alloc_hider" = type { ptr }
%union.anon = type { i64, [8 x i8] }
%"struct.rocksdb::OffpeakTimeOption" = type { %"class.std::__cxx11::basic_string", i32, i32 }

; Function Attrs: mustprogress uwtable
define available_externally noundef nonnull align 8 dereferenceable(32) ptr @_ZNSt7__cxx1112basic_stringIcSt11char_traitsIcESaIcEE6assignERKS4_(ptr noundef nonnull align 8 dereferenceable(32) %0, ptr noundef nonnull align 8 dereferenceable(32) %1) #0 align 2 {
  %3 = alloca ptr, align 8
  %4 = alloca ptr, align 8
  store ptr %0, ptr %3, align 8, !tbaa !11
  store ptr %1, ptr %4, align 8, !tbaa !11
  %5 = load ptr, ptr %3, align 8
  %6 = load ptr, ptr %4, align 8, !tbaa !11
  call void @_ZNSt7__cxx1112basic_stringIcSt11char_traitsIcESaIcEE9_M_assignERKS4_(ptr noundef nonnull align 8 dereferenceable(32) %5, ptr noundef nonnull align 8 dereferenceable(32) %6)
  ret ptr %5
}

; Function Attrs: mustprogress uwtable
define available_externally noundef nonnull align 8 dereferenceable(32) ptr @_ZNSt7__cxx1112basic_stringIcSt11char_traitsIcESaIcEEaSERKS4_(ptr noundef nonnull align 8 dereferenceable(32) %0, ptr noundef nonnull align 8 dereferenceable(32) %1) #0 align 2 {
  %3 = alloca ptr, align 8
  %4 = alloca ptr, align 8
  store ptr %0, ptr %3, align 8, !tbaa !11
  store ptr %1, ptr %4, align 8, !tbaa !11
  %5 = load ptr, ptr %3, align 8
  %6 = load ptr, ptr %4, align 8, !tbaa !11
  %7 = call noundef nonnull align 8 dereferenceable(32) ptr @_ZNSt7__cxx1112basic_stringIcSt11char_traitsIcESaIcEE6assignERKS4_(ptr noundef nonnull align 8 dereferenceable(32) %5, ptr noundef nonnull align 8 dereferenceable(32) %6)
  ret ptr %7
}

; Function Attrs: mustprogress uwtable
define void @_ZN7rocksdb17OffpeakTimeOption24SetFromOffpeakTimeStringERKNSt7__cxx1112basic_stringIcSt11char_traitsIcESaIcEEE(ptr noundef nonnull align 8 dereferenceable(40) %0, ptr noundef nonnull align 8 dereferenceable(32) %1) #0 align 2 {
  %3 = alloca ptr, align 8
  %4 = alloca ptr, align 8
  %5 = alloca i32, align 4
  %6 = alloca i32, align 4
  store ptr %0, ptr %3, align 8, !tbaa !4
  store ptr %1, ptr %4, align 8, !tbaa !11
  %7 = load ptr, ptr %3, align 8
  call void @llvm.lifetime.start.p0(i64 4, ptr %5) #12
  %8 = getelementptr inbounds nuw %"struct.rocksdb::OffpeakTimeOption", ptr %7, i32 0, i32 1
  %9 = load i32, ptr %8, align 8, !tbaa !15
  store i32 %9, ptr %5, align 4, !tbaa !22
  call void @llvm.lifetime.start.p0(i64 4, ptr %6) #12
  %10 = getelementptr inbounds nuw %"struct.rocksdb::OffpeakTimeOption", ptr %7, i32 0, i32 2
  %11 = load i32, ptr %10, align 4, !tbaa !21
  store i32 %11, ptr %6, align 4, !tbaa !22
  %12 = load ptr, ptr %4, align 8, !tbaa !11
  %13 = getelementptr inbounds nuw %"struct.rocksdb::OffpeakTimeOption", ptr %7, i32 0, i32 1
  %14 = getelementptr inbounds nuw %"struct.rocksdb::OffpeakTimeOption", ptr %7, i32 0, i32 2
  %15 = call noundef zeroext i1 @_ZN7rocksdb23TryParseTimeRangeStringERKNSt7__cxx1112basic_stringIcSt11char_traitsIcESaIcEEERiS8_(ptr noundef nonnull align 8 dereferenceable(32) %12, ptr noundef nonnull align 4 dereferenceable(4) %13, ptr noundef nonnull align 4 dereferenceable(4) %14)
  br i1 %15, label %16, label %20

16:                                               ; preds = %2
  %17 = load ptr, ptr %4, align 8, !tbaa !11
  %18 = getelementptr inbounds nuw %"struct.rocksdb::OffpeakTimeOption", ptr %7, i32 0, i32 0
  %19 = call noundef nonnull align 8 dereferenceable(32) ptr @_ZNSt7__cxx1112basic_stringIcSt11char_traitsIcESaIcEEaSERKS4_(ptr noundef nonnull align 8 dereferenceable(32) %18, ptr noundef nonnull align 8 dereferenceable(32) %17)
  br label %25

20:                                               ; preds = %2
  %21 = load i32, ptr %5, align 4, !tbaa !22
  %22 = getelementptr inbounds nuw %"struct.rocksdb::OffpeakTimeOption", ptr %7, i32 0, i32 1
  store i32 %21, ptr %22, align 8, !tbaa !15
  %23 = load i32, ptr %6, align 4, !tbaa !22
  %24 = getelementptr inbounds nuw %"struct.rocksdb::OffpeakTimeOption", ptr %7, i32 0, i32 2
  store i32 %23, ptr %24, align 4, !tbaa !21
  br label %25

25:                                               ; preds = %20, %16
  call void @llvm.lifetime.end.p0(i64 4, ptr %6) #12
  call void @llvm.lifetime.end.p0(i64 4, ptr %5) #12
  ret void
}