; Function Attrs: mustprogress uwtable
define void @_ZN7rocksdb17OffpeakTimeOption24SetFromOffpeakTimeStringERKNSt7__cxx1112basic_stringIcSt11char_traitsIcESaIcEEE(ptr noundef nonnull align 8 dereferenceable(40) %0, ptr noundef nonnull align 8 dereferenceable(32) %1) local_unnamed_addr #0 align 2 {
  %3 = getelementptr inbounds nuw i8, ptr %0, i64 32
  %4 = load i32, ptr %3, align 8, !tbaa !14
  %5 = getelementptr inbounds nuw i8, ptr %0, i64 36
  %6 = load i32, ptr %5, align 4, !tbaa !17
  %7 = tail call noundef zeroext i1 @_ZN7rocksdb23TryParseTimeRangeStringERKNSt7__cxx1112basic_stringIcSt11char_traitsIcESaIcEEERiS8_(ptr noundef nonnull align 8 dereferenceable(32) %1, ptr noundef nonnull align 4 dereferenceable(4) %3, ptr noundef nonnull align 4 dereferenceable(4) %5)
  br i1 %7, label %8, label %9

8:                                                ; preds = %2
  tail call void @_ZNSt7__cxx1112basic_stringIcSt11char_traitsIcESaIcEE9_M_assignERKS4_(ptr noundef nonnull align 8 dereferenceable(32) %0, ptr noundef nonnull align 8 dereferenceable(32) %1)
  br label %10

9:                                                ; preds = %2
  store i32 %4, ptr %3, align 8, !tbaa !14
  store i32 %6, ptr %5, align 4, !tbaa !17
  br label %10

10:                                               ; preds = %9, %8
  ret void
}